target datalayout = "e-m:e-p270:32:32-p271:32:32-p272:64:64-i64:64-i128:128-f80:128-n8:16:32:64-S128"
target triple = "x86_64-pc-linux-gnu"

@.str.6 = private unnamed_addr constant [26 x i8] c"attempt to perform 'n%%0'\00", align 1

; Function Attrs: nounwind uwtable
define hidden i64 @luaV_mod(ptr noundef %0, i64 noundef %1, i64 noundef %2) #0 {
  %4 = alloca i64, align 8
  %5 = alloca ptr, align 8
  %6 = alloca i64, align 8
  %7 = alloca i64, align 8
  %8 = alloca i64, align 8
  store ptr %0, ptr %5, align 8, !tbaa !32
  store i64 %1, ptr %6, align 8, !tbaa !30
  store i64 %2, ptr %7, align 8, !tbaa !30
  %9 = load i64, ptr %7, align 8, !tbaa !30
  %10 = add i64 %9, 1
  %11 = icmp ule i64 %10, 1
  %12 = zext i1 %11 to i32
  %13 = icmp ne i32 %12, 0
  %14 = zext i1 %13 to i32
  %15 = sext i32 %14 to i64
  %16 = call i64 @llvm.expect.i64(i64 %15, i64 0)
  %17 = icmp ne i64 %16, 0
  br i1 %17, label %18, label %24

18:                                               ; preds = %3
  %19 = load i64, ptr %7, align 8, !tbaa !30
  %20 = icmp eq i64 %19, 0
  br i1 %20, label %21, label %23

21:                                               ; preds = %18
  %22 = load ptr, ptr %5, align 8, !tbaa !32
  call void (ptr, ptr, ...) @luaG_runerror(ptr noundef %22, ptr noundef @.str.6) #11
  unreachable

23:                                               ; preds = %18
  store i64 0, ptr %4, align 8
  br label %41

24:                                               ; preds = %3
  call void @llvm.lifetime.start.p0(i64 8, ptr %8) #10
  %25 = load i64, ptr %6, align 8, !tbaa !30
  %26 = load i64, ptr %7, align 8, !tbaa !30
  %27 = srem i64 %25, %26
  store i64 %27, ptr %8, align 8, !tbaa !30
  %28 = load i64, ptr %8, align 8, !tbaa !30
  %29 = icmp ne i64 %28, 0
  br i1 %29, label %30, label %39

30:                                               ; preds = %24
  %31 = load i64, ptr %8, align 8, !tbaa !30
  %32 = load i64, ptr %7, align 8, !tbaa !30
  %33 = xor i64 %31, %32
  %34 = icmp slt i64 %33, 0
  br i1 %34, label %35, label %39

35:                                               ; preds = %30
  %36 = load i64, ptr %7, align 8, !tbaa !30
  %37 = load i64, ptr %8, align 8, !tbaa !30
  %38 = add nsw i64 %37, %36
  store i64 %38, ptr %8, align 8, !tbaa !30
  br label %39

39:                                               ; preds = %35, %30, %24
  %40 = load i64, ptr %8, align 8, !tbaa !30
  store i64 %40, ptr %4, align 8
  call void @llvm.lifetime.end.p0(i64 8, ptr %8) #10
  br label %41

41:                                               ; preds = %39, %23
  %42 = load i64, ptr %4, align 8
  ret i64 %42
}