; Function Attrs: nounwind uwtable
define hidden i64 @luaV_mod(ptr noundef %0, i64 noundef %1, i64 noundef %2) local_unnamed_addr #0 {
  %4 = add i64 %2, 1
  %5 = icmp ult i64 %4, 2
  br i1 %5, label %6, label %9, !prof !20

6:                                                ; preds = %3
  %7 = icmp eq i64 %2, 0
  br i1 %7, label %8, label %15

8:                                                ; preds = %6
  tail call void (ptr, ptr, ...) @luaG_runerror(ptr noundef %0, ptr noundef nonnull @.str.6) #14
  unreachable

9:                                                ; preds = %3
  %10 = srem i64 %1, %2
  %.not = icmp eq i64 %10, 0
  br i1 %.not, label %15, label %11

11:                                               ; preds = %9
  %12 = xor i64 %10, %2
  %13 = icmp slt i64 %12, 0
  %14 = select i1 %13, i64 %2, i64 0
  %spec.select = add nsw i64 %14, %10
  br label %15

15:                                               ; preds = %11, %9, %6
  %.011 = phi i64 [ 0, %6 ], [ 0, %9 ], [ %spec.select, %11 ]
  ret i64 %.011
}